target datalayout = "e-m:e-p270:32:32-p271:32:32-p272:64:64-i64:64-i128:128-f80:128-n8:16:32:64-S128"
target triple = "x86_64-pc-linux-gnu"

%"class.G1MonotonicArenaFreePool::G1ReturnMemoryProcessor" = type { ptr, i64, ptr, i64, i64 }
%"class.G1MonotonicArena::SegmentFreeList" = type { %class.LockFreeStack, i64, i64 }
%class.LockFreeStack = type { ptr }
%"struct.Atomic::LoadImpl" = type { i8 }
%"struct.Atomic::PlatformLoad" = type { i8 }

; Function Attrs: mustprogress nounwind uwtable
define linkonce_odr hidden noundef i64 @_ZNK6Atomic12PlatformLoadILm8EEclImEET_PVKS3_(ptr noundef nonnull align 1 dereferenceable(1) %0, ptr noundef %1) #1 comdat align 2 {
  %3 = alloca ptr, align 8
  %4 = alloca ptr, align 8
  store ptr %0, ptr %3, align 8
  store ptr %1, ptr %4, align 8
  %5 = load ptr, ptr %4, align 8
  %6 = load volatile i64, ptr %5, align 8
  ret i64 %6
}

; Function Attrs: mustprogress nounwind uwtable
define linkonce_odr hidden noundef i64 @_ZNK6Atomic8LoadImplImNS_12PlatformLoadILm8EEEvEclEPVKm(ptr noundef nonnull align 1 dereferenceable(1) %0, ptr noundef %1) #1 comdat align 2 {
  %3 = alloca ptr, align 8
  %4 = alloca ptr, align 8
  %5 = alloca %"struct.Atomic::PlatformLoad", align 1
  store ptr %0, ptr %3, align 8
  store ptr %1, ptr %4, align 8
  %6 = load ptr, ptr %4, align 8
  %7 = call noundef i64 @_ZNK6Atomic12PlatformLoadILm8EEclImEET_PVKS3_(ptr noundef nonnull align 1 dereferenceable(1) %5, ptr noundef %6)
  ret i64 %7
}

; Function Attrs: mustprogress nounwind uwtable
define linkonce_odr hidden noundef i64 @_ZN6Atomic4loadImEET_PVKS1_(ptr noundef %0) #1 comdat align 2 {
  %2 = alloca ptr, align 8
  %3 = alloca %"struct.Atomic::LoadImpl", align 1
  store ptr %0, ptr %2, align 8
  %4 = load ptr, ptr %2, align 8
  %5 = call noundef i64 @_ZNK6Atomic8LoadImplImNS_12PlatformLoadILm8EEEvEclEPVKm(ptr noundef nonnull align 1 dereferenceable(1) %3, ptr noundef %4)
  ret i64 %5
}

; Function Attrs: mustprogress nounwind uwtable
define linkonce_odr hidden noundef i64 @_ZNK16G1MonotonicArena15SegmentFreeList8mem_sizeEv(ptr noundef nonnull align 8 dereferenceable(24) %0) #1 comdat align 2 {
  %2 = alloca ptr, align 8
  store ptr %0, ptr %2, align 8
  %3 = load ptr, ptr %2, align 8
  %4 = getelementptr inbounds %"class.G1MonotonicArena::SegmentFreeList", ptr %3, i32 0, i32 2
  %5 = call noundef i64 @_ZN6Atomic4loadImEET_PVKS1_(ptr noundef %4)
  ret i64 %5
}

; Function Attrs: mustprogress nounwind uwtable
define hidden void @_ZN24G1MonotonicArenaFreePool23G1ReturnMemoryProcessor15visit_free_listEPN16G1MonotonicArena15SegmentFreeListE(ptr noundef nonnull align 8 dereferenceable(40) %0, ptr noundef %1) #1 align 2 {
  %3 = alloca ptr, align 8
  %4 = alloca ptr, align 8
  store ptr %0, ptr %3, align 8
  store ptr %1, ptr %4, align 8
  %5 = load ptr, ptr %3, align 8
  %6 = getelementptr inbounds %"class.G1MonotonicArenaFreePool::G1ReturnMemoryProcessor", ptr %5, i32 0, i32 1
  %7 = load i64, ptr %6, align 8
  %8 = icmp ugt i64 %7, 0
  br i1 %8, label %9, label %12

9:                                                ; preds = %2
  %10 = load ptr, ptr %4, align 8
  %11 = getelementptr inbounds %"class.G1MonotonicArenaFreePool::G1ReturnMemoryProcessor", ptr %5, i32 0, i32 0
  store ptr %10, ptr %11, align 8
  br label %13

12:                                               ; preds = %2
  br label %13

13:                                               ; preds = %12, %9
  %14 = load ptr, ptr %4, align 8
  %15 = call noundef i64 @_ZNK16G1MonotonicArena15SegmentFreeList8mem_sizeEv(ptr noundef nonnull align 8 dereferenceable(24) %14)
  %16 = getelementptr inbounds %"class.G1MonotonicArenaFreePool::G1ReturnMemoryProcessor", ptr %5, i32 0, i32 1
  %17 = load i64, ptr %16, align 8
  %18 = icmp ugt i64 %15, %17
  br i1 %18, label %19, label %25

19:                                               ; preds = %13
  %20 = load ptr, ptr %4, align 8
  %21 = getelementptr inbounds %"class.G1MonotonicArenaFreePool::G1ReturnMemoryProcessor", ptr %5, i32 0, i32 4
  %22 = getelementptr inbounds %"class.G1MonotonicArenaFreePool::G1ReturnMemoryProcessor", ptr %5, i32 0, i32 3
  %23 = call noundef ptr @_ZN16G1MonotonicArena15SegmentFreeList7get_allERmS1_(ptr noundef nonnull align 8 dereferenceable(24) %20, ptr noundef nonnull align 8 dereferenceable(8) %21, ptr noundef nonnull align 8 dereferenceable(8) %22)
  %24 = getelementptr inbounds %"class.G1MonotonicArenaFreePool::G1ReturnMemoryProcessor", ptr %5, i32 0, i32 2
  store ptr %23, ptr %24, align 8
  br label %26

25:                                               ; preds = %13
  br label %26

26:                                               ; preds = %25, %19
  %27 = getelementptr inbounds %"class.G1MonotonicArenaFreePool::G1ReturnMemoryProcessor", ptr %5, i32 0, i32 2
  %28 = load ptr, ptr %27, align 8
  %29 = icmp eq ptr %28, null
  br i1 %29, label %30, label %33

30:                                               ; preds = %26
  %31 = getelementptr inbounds %"class.G1MonotonicArenaFreePool::G1ReturnMemoryProcessor", ptr %5, i32 0, i32 0
  store ptr null, ptr %31, align 8
  %32 = getelementptr inbounds %"class.G1MonotonicArenaFreePool::G1ReturnMemoryProcessor", ptr %5, i32 0, i32 1
  store i64 0, ptr %32, align 8
  br label %33

33:                                               ; preds = %30, %26
  ret void
}