; Function Attrs: mustprogress nounwind uwtable
define hidden void @_ZN24G1MonotonicArenaFreePool23G1ReturnMemoryProcessor15visit_free_listEPN16G1MonotonicArena15SegmentFreeListE(ptr noundef nonnull align 8 dereferenceable(40) %0, ptr noundef %1) local_unnamed_addr #1 align 2 {
  %3 = getelementptr inbounds i8, ptr %0, i64 8
  %4 = load i64, ptr %3, align 8
  %.not = icmp eq i64 %4, 0
  br i1 %.not, label %6, label %5

5:                                                ; preds = %2
  store ptr %1, ptr %0, align 8
  br label %6

6:                                                ; preds = %2, %5
  %7 = getelementptr inbounds i8, ptr %1, i64 16
  %8 = load volatile i64, ptr %7, align 8
  %9 = icmp ugt i64 %8, %4
  br i1 %9, label %10, label %._crit_edge

._crit_edge:                                      ; preds = %6
  %.phi.trans.insert = getelementptr inbounds i8, ptr %0, i64 16
  %.pre = load ptr, ptr %.phi.trans.insert, align 8
  br label %15

10:                                               ; preds = %6
  %11 = getelementptr inbounds i8, ptr %0, i64 32
  %12 = getelementptr inbounds i8, ptr %0, i64 24
  %13 = tail call noundef ptr @_ZN16G1MonotonicArena15SegmentFreeList7get_allERmS1_(ptr noundef nonnull align 8 dereferenceable(24) %1, ptr noundef nonnull align 8 dereferenceable(8) %11, ptr noundef nonnull align 8 dereferenceable(8) %12) #8
  %14 = getelementptr inbounds i8, ptr %0, i64 16
  store ptr %13, ptr %14, align 8
  br label %15

15:                                               ; preds = %._crit_edge, %10
  %16 = phi ptr [ %.pre, %._crit_edge ], [ %13, %10 ]
  %17 = icmp eq ptr %16, null
  br i1 %17, label %18, label %19

18:                                               ; preds = %15
  tail call void @llvm.memset.p0.i64(ptr noundef nonnull align 8 dereferenceable(16) %0, i8 0, i64 16, i1 false)
  br label %19

19:                                               ; preds = %18, %15
  ret void
}